target datalayout = "e-m:e-p270:32:32-p271:32:32-p272:64:64-i64:64-i128:128-f80:128-n8:16:32:64-S128"
target triple = "x86_64-pc-linux-gnu"

%struct.ma_allocation_callbacks = type { ptr, ptr, ptr, ptr }
%struct.ma_device = type { ptr, i32, i32, %struct.ma_atomic_device_state, ptr, ptr, ptr, ptr, %union.pthread_mutex_t, %struct.ma_event, %struct.ma_event, %struct.ma_event, i64, i32, i8, i8, i8, i8, i8, %struct.ma_atomic_float, %struct.ma_duplex_rb, %struct.anon.19, %struct.anon.21, %struct.anon.26, %union.anon.27 }
%struct.ma_atomic_device_state = type { i32 }
%struct.ma_event = type { i32, %union.pthread_mutex_t, %union.pthread_cond_t }
%union.pthread_cond_t = type { %struct.__pthread_cond_s }
%struct.__pthread_cond_s = type { %union.__atomic_wide_counter, %union.__atomic_wide_counter, [2 x i32], [2 x i32], i32, i32, [2 x i32] }
%union.__atomic_wide_counter = type { i64 }
%struct.ma_atomic_float = type { float }
%struct.ma_duplex_rb = type { %struct.ma_pcm_rb }
%struct.ma_pcm_rb = type { %struct.ma_data_source_base, %struct.ma_rb, i32, i32, i32 }
%struct.ma_data_source_base = type { ptr, i64, i64, i64, i64, ptr, ptr, ptr, i32 }
%struct.ma_rb = type { ptr, i32, i32, i32, i32, i32, i8, i8, %struct.ma_allocation_callbacks }
%struct.anon.19 = type { i32, ptr, ptr, %struct.anon.20 }
%struct.anon.20 = type { i32 }
%struct.anon.21 = type { ptr, %union.ma_device_id, [256 x i8], i32, i32, i32, [254 x i8], i32, i32, i32, [254 x i8], i32, i32, i32, i32, %struct.ma_data_converter, ptr, i32, i32, ptr, i64, i64, i64 }
%union.ma_device_id = type { %union.anon.17 }
%union.anon.17 = type { ptr, [248 x i8] }
%struct.ma_data_converter = type { i32, i32, i32, i32, i32, i32, i32, i32, %struct.ma_channel_converter, %struct.ma_resampler, i8, i8, i8, i8, i8, i8, ptr }
%struct.ma_channel_converter = type { i32, i32, i32, i32, i32, ptr, ptr, ptr, %union.anon.22, ptr, i32 }
%union.anon.22 = type { ptr }
%struct.ma_resampler = type { ptr, ptr, ptr, i32, i32, i32, i32, %union.anon.23, ptr, i32 }
%union.anon.23 = type { %struct.ma_linear_resampler }
%struct.ma_linear_resampler = type { %struct.ma_linear_resampler_config, i32, i32, i32, i32, %union.anon.24, %union.anon.25, %struct.ma_lpf, ptr, i32 }
%struct.ma_linear_resampler_config = type { i32, i32, i32, i32, i32, double }
%union.anon.24 = type { ptr }
%union.anon.25 = type { ptr }
%struct.ma_lpf = type { i32, i32, i32, i32, i32, ptr, ptr, ptr, i32 }
%struct.anon.26 = type { ptr, %union.ma_device_id, [256 x i8], i32, i32, i32, [254 x i8], i32, i32, i32, [254 x i8], i32, i32, i32, i32, %struct.ma_data_converter, ptr, i32, i32 }
%union.anon.27 = type { %struct.anon.31 }
%struct.anon.31 = type { i64, %struct.ma_event, %struct.ma_event, %struct.ma_semaphore, i32, i32, %union.ma_timer, double, i32, i32, i64, i64, %struct.ma_atomic_bool32 }
%struct.ma_semaphore = type { i32, %union.pthread_mutex_t, %union.pthread_cond_t }
%union.ma_timer = type { i64 }
%struct.ma_atomic_bool32 = type { i32 }
%union.pthread_mutex_t = type { %struct.__pthread_mutex_s }
%struct.__pthread_mutex_s = type { i32, i32, i32, i32, i32, i16, i16, %struct.__pthread_internal_list }
%struct.__pthread_internal_list = type { ptr, ptr }

; Function Attrs: alwaysinline nounwind uwtable
define internal i32 @ma_atomic_device_state_get(ptr noundef %0) #7 {
  %2 = alloca ptr, align 8
  %3 = alloca i32, align 4
  store ptr %0, ptr %2, align 8
  %4 = load ptr, ptr %2, align 8
  %5 = getelementptr inbounds nuw %struct.ma_atomic_device_state, ptr %4, i32 0, i32 0
  %6 = load atomic i32, ptr %5 seq_cst, align 4
  store i32 %6, ptr %3, align 4
  %7 = load i32, ptr %3, align 4
  ret i32 %7
}

; Function Attrs: nounwind uwtable
define hidden i32 @ma_device_get_state(ptr noundef %0) #0 {
  %2 = alloca i32, align 4
  %3 = alloca ptr, align 8
  store ptr %0, ptr %3, align 8
  %4 = load ptr, ptr %3, align 8
  %5 = icmp eq ptr %4, null
  br i1 %5, label %6, label %7

6:                                                ; preds = %1
  store i32 0, ptr %2, align 4
  br label %11

7:                                                ; preds = %1
  %8 = load ptr, ptr %3, align 8
  %9 = getelementptr inbounds nuw %struct.ma_device, ptr %8, i32 0, i32 3
  %10 = call i32 @ma_atomic_device_state_get(ptr noundef %9)
  store i32 %10, ptr %2, align 4
  br label %11

11:                                               ; preds = %7, %6
  %12 = load i32, ptr %2, align 4
  ret i32 %12
}

; Function Attrs: nounwind uwtable
define hidden i32 @ma_device_is_started(ptr noundef %0) #0 {
  %2 = alloca ptr, align 8
  store ptr %0, ptr %2, align 8
  %3 = load ptr, ptr %2, align 8
  %4 = call i32 @ma_device_get_state(ptr noundef %3)
  %5 = icmp eq i32 %4, 2
  %6 = zext i1 %5 to i32
  ret i32 %6
}