; Function Attrs: mustprogress nofree norecurse nounwind willreturn memory(argmem: readwrite) uwtable
define hidden range(i32 0, 2) i32 @ma_device_is_started(ptr noundef readonly captures(address_is_null) %0) local_unnamed_addr #26 {
  %2 = icmp eq ptr %0, null
  br i1 %2, label %ma_device_get_state.exit, label %3

3:                                                ; preds = %1
  %4 = getelementptr inbounds nuw i8, ptr %0, i64 16
  %5 = load atomic i32, ptr %4 seq_cst, align 4
  %6 = icmp eq i32 %5, 2
  %7 = zext i1 %6 to i32
  br label %ma_device_get_state.exit

ma_device_get_state.exit:                         ; preds = %1, %3
  %.0.i = phi i32 [ %7, %3 ], [ 0, %1 ]
  ret i32 %.0.i
}